; Function Attrs: nounwind uwtable
define void @Abc_FrameCopyLTLDataBase(ptr noundef captures(none) %0, ptr noundef readonly captures(none) %1) local_unnamed_addr #3 {
  %3 = getelementptr inbounds nuw i8, ptr %0, i64 416
  %4 = load ptr, ptr %3, align 8, !tbaa !12
  %.not = icmp eq ptr %4, null
  br i1 %.not, label %9, label %5

5:                                                ; preds = %2
  %6 = getelementptr inbounds nuw i8, ptr %4, i64 8
  %7 = load ptr, ptr %6, align 8, !tbaa !27
  %.not.i = icmp eq ptr %7, null
  br i1 %.not.i, label %Vec_PtrFree.exit, label %8

8:                                                ; preds = %5
  tail call void @free(ptr noundef nonnull %7) #23
  br label %Vec_PtrFree.exit

Vec_PtrFree.exit:                                 ; preds = %5, %8
  tail call void @free(ptr noundef nonnull %4) #23
  br label %9

9:                                                ; preds = %Vec_PtrFree.exit, %2
  %10 = getelementptr inbounds nuw i8, ptr %1, i64 88
  %11 = load ptr, ptr %10, align 8, !tbaa !29
  %12 = getelementptr i8, ptr %11, i64 4
  %.val = load i32, ptr %12, align 4, !tbaa !38
  %13 = tail call noalias dereferenceable_or_null(16) ptr @malloc(i64 noundef 16) #22
  %14 = add i32 %.val, -1
  %or.cond.i = icmp ult i32 %14, 7
  %spec.store.select.i = select i1 %or.cond.i, i32 8, i32 %.val
  %15 = getelementptr inbounds nuw i8, ptr %13, i64 4
  store i32 0, ptr %15, align 4, !tbaa !38
  store i32 %spec.store.select.i, ptr %13, align 8, !tbaa !39
  %.not.i17 = icmp eq i32 %spec.store.select.i, 0
  br i1 %.not.i17, label %Vec_PtrAlloc.exit, label %16

16:                                               ; preds = %9
  %17 = sext i32 %spec.store.select.i to i64
  %18 = shl nsw i64 %17, 3
  %19 = tail call noalias ptr @malloc(i64 noundef %18) #22
  br label %Vec_PtrAlloc.exit

Vec_PtrAlloc.exit:                                ; preds = %9, %16
  %20 = phi ptr [ %19, %16 ], [ null, %9 ]
  %21 = getelementptr inbounds nuw i8, ptr %13, i64 8
  store ptr %20, ptr %21, align 8, !tbaa !27
  store ptr %13, ptr %3, align 8, !tbaa !12
  %22 = icmp sgt i32 %.val, 0
  br i1 %22, label %.lr.ph, label %.critedge

.lr.ph:                                           ; preds = %Vec_PtrAlloc.exit, %Vec_PtrPush.exit
  %indvars.iv = phi i64 [ %indvars.iv.next, %Vec_PtrPush.exit ], [ 0, %Vec_PtrAlloc.exit ]
  %23 = phi ptr [ %62, %Vec_PtrPush.exit ], [ %11, %Vec_PtrAlloc.exit ]
  %24 = getelementptr i8, ptr %23, i64 8
  %.val16 = load ptr, ptr %24, align 8, !tbaa !27
  %25 = getelementptr inbounds nuw ptr, ptr %.val16, i64 %indvars.iv
  %26 = load ptr, ptr %25, align 8, !tbaa !40
  %27 = tail call i64 @strlen(ptr noundef nonnull dereferenceable(1) %26) #24
  %28 = add i64 %27, 1
  %29 = tail call noalias ptr @malloc(i64 noundef %28) #22
  %strcpy = tail call ptr @strcpy(ptr noundef nonnull dereferenceable(1) %29, ptr noundef nonnull dereferenceable(1) %26)
  %30 = load ptr, ptr %3, align 8, !tbaa !12
  %31 = getelementptr inbounds nuw i8, ptr %30, i64 4
  %32 = load i32, ptr %31, align 4, !tbaa !38
  %33 = load i32, ptr %30, align 8, !tbaa !39
  %34 = icmp eq i32 %32, %33
  br i1 %34, label %35, label %.Vec_PtrGrow.exit11_crit_edge.i

.Vec_PtrGrow.exit11_crit_edge.i:                  ; preds = %.lr.ph
  %.phi.trans.insert.i = getelementptr inbounds nuw i8, ptr %30, i64 8
  %.pre.i = load ptr, ptr %.phi.trans.insert.i, align 8, !tbaa !27
  br label %Vec_PtrPush.exit

35:                                               ; preds = %.lr.ph
  %36 = icmp slt i32 %32, 16
  br i1 %36, label %37, label %45

37:                                               ; preds = %35
  %38 = getelementptr inbounds nuw i8, ptr %30, i64 8
  %39 = load ptr, ptr %38, align 8, !tbaa !27
  %.not9.i.i = icmp eq ptr %39, null
  br i1 %.not9.i.i, label %42, label %40

40:                                               ; preds = %37
  %41 = tail call dereferenceable_or_null(128) ptr @realloc(ptr noundef nonnull %39, i64 noundef 128) #25
  br label %Vec_PtrGrow.exit.i

42:                                               ; preds = %37
  %43 = tail call noalias dereferenceable_or_null(128) ptr @malloc(i64 noundef 128) #22
  br label %Vec_PtrGrow.exit.i

Vec_PtrGrow.exit.i:                               ; preds = %42, %40
  %44 = phi ptr [ %41, %40 ], [ %43, %42 ]
  store ptr %44, ptr %38, align 8, !tbaa !27
  store i32 16, ptr %30, align 8, !tbaa !39
  br label %Vec_PtrPush.exit

45:                                               ; preds = %35
  %46 = shl nuw nsw i32 %32, 1
  %47 = getelementptr inbounds nuw i8, ptr %30, i64 8
  %48 = load ptr, ptr %47, align 8, !tbaa !27
  %.not9.i10.i = icmp eq ptr %48, null
  %49 = zext nneg i32 %46 to i64
  %50 = shl nuw nsw i64 %49, 3
  br i1 %.not9.i10.i, label %53, label %51

51:                                               ; preds = %45
  %52 = tail call ptr @realloc(ptr noundef nonnull %48, i64 noundef %50) #25
  br label %55

53:                                               ; preds = %45
  %54 = tail call noalias ptr @malloc(i64 noundef %50) #22
  br label %55

55:                                               ; preds = %53, %51
  %56 = phi ptr [ %52, %51 ], [ %54, %53 ]
  store ptr %56, ptr %47, align 8, !tbaa !27
  store i32 %46, ptr %30, align 8, !tbaa !39
  br label %Vec_PtrPush.exit

Vec_PtrPush.exit:                                 ; preds = %.Vec_PtrGrow.exit11_crit_edge.i, %Vec_PtrGrow.exit.i, %55
  %57 = phi ptr [ %.pre.i, %.Vec_PtrGrow.exit11_crit_edge.i ], [ %56, %55 ], [ %44, %Vec_PtrGrow.exit.i ]
  %58 = load i32, ptr %31, align 4, !tbaa !38
  %59 = add nsw i32 %58, 1
  store i32 %59, ptr %31, align 4, !tbaa !38
  %60 = sext i32 %58 to i64
  %61 = getelementptr inbounds ptr, ptr %57, i64 %60
  store ptr %29, ptr %61, align 8, !tbaa !40
  %indvars.iv.next = add nuw nsw i64 %indvars.iv, 1
  %62 = load ptr, ptr %10, align 8, !tbaa !29
  %63 = getelementptr i8, ptr %62, i64 4
  %.val15 = load i32, ptr %63, align 4, !tbaa !38
  %64 = sext i32 %.val15 to i64
  %65 = icmp slt i64 %indvars.iv.next, %64
  br i1 %65, label %.lr.ph, label %.critedge, !llvm.loop !41

.critedge:                                        ; preds = %Vec_PtrPush.exit, %Vec_PtrAlloc.exit
  ret void
}